; Function Attrs: mustprogress nounwind uwtable
define dso_local i64 @_ZN5clang11SemaOpenACC19ActOnAssociatedStmtENS_14SourceLocationENS_20OpenACCDirectiveKindENS_12ActionResultIPNS_4StmtELb1EEE(ptr noundef nonnull align 8 dereferenceable(73) %0, i32 %1, i32 noundef %2, i64 %3) local_unnamed_addr #0 align 2 {
  %5 = alloca i32, align 4
  %6 = alloca %"class.clang::SemaBase::SemaDiagnosticBuilder", align 8
  %7 = alloca %"class.clang::SemaBase::SemaDiagnosticBuilder", align 8
  store i32 %2, ptr %5, align 4
  %switch = icmp ugt i32 %2, 2
  %8 = icmp ugt i64 %3, 1
  %or.cond = select i1 %switch, i1 %8, i1 false
  br i1 %or.cond, label %9, label %.critedge

9:                                                ; preds = %4
  %10 = and i64 %3, -2
  %11 = inttoptr i64 %10 to ptr
  %12 = load i8, ptr %11, align 8
  switch i8 %12, label %13 [
    i8 -18, label %.critedge
    i8 -27, label %.critedge
  ]

13:                                               ; preds = %9
  %14 = tail call i32 @_ZNK5clang4Stmt11getBeginLocEv(ptr noundef nonnull align 8 dereferenceable(8) %11) #18
  call void @_ZN5clang8SemaBase4DiagENS_14SourceLocationEjb(ptr dead_on_unwind nonnull writable sret(%"class.clang::SemaBase::SemaDiagnosticBuilder") align 8 %6, ptr noundef nonnull align 8 dereferenceable(8) %0, i32 %14, i32 noundef 2635, i1 noundef zeroext false) #16
  call void @_ZN5clang8SemaBase21SemaDiagnosticBuilderD1Ev(ptr noundef nonnull align 8 dereferenceable(96) %6) #16
  call void @_ZN5clang8SemaBase4DiagENS_14SourceLocationEjb(ptr dead_on_unwind nonnull writable sret(%"class.clang::SemaBase::SemaDiagnosticBuilder") align 8 %7, ptr noundef nonnull align 8 dereferenceable(8) %0, i32 %1, i32 noundef 5370, i1 noundef zeroext false) #16
  %15 = call noundef nonnull align 8 dereferenceable(96) ptr @_ZN5clanglsINS_20OpenACCDirectiveKindEEERKNS_8SemaBase21SemaDiagnosticBuilderES5_RKT_(ptr noundef nonnull align 8 dereferenceable(96) %7, ptr noundef nonnull align 4 dereferenceable(4) %5)
  call void @_ZN5clang8SemaBase21SemaDiagnosticBuilderD1Ev(ptr noundef nonnull align 8 dereferenceable(96) %7) #16
  br label %.critedge

.critedge:                                        ; preds = %9, %9, %4, %13
  %.sroa.03.0 = phi i64 [ 1, %13 ], [ %3, %4 ], [ %3, %9 ], [ %3, %9 ]
  ret i64 %.sroa.03.0
}